target datalayout = "e-m:e-p270:32:32-p271:32:32-p272:64:64-i64:64-i128:128-f80:128-n8:16:32:64-S128"
target triple = "x86_64-unknown-linux-gnu"

%"class.EA::UnitTest::Test" = type { ptr, %"class.eastl::basic_string", ptr, i64, i64, ptr, i8, i64 }
%"class.eastl::basic_string" = type { %"class.eastl::compressed_pair" }
%"class.eastl::compressed_pair" = type { %"class.eastl::compressed_pair_imp" }
%"class.eastl::compressed_pair_imp" = type { %"struct.eastl::basic_string<char>::Layout" }
%"struct.eastl::basic_string<char>::Layout" = type { %union.anon }
%union.anon = type { %"struct.eastl::basic_string<char>::HeapLayout" }
%"struct.eastl::basic_string<char>::HeapLayout" = type { ptr, i64, i64 }

@_ZN2EA8UnitTest16gpReportFunctionE = dso_local global ptr null, align 8

; Function Attrs: mustprogress nounwind uwtable
define dso_local noundef ptr @_ZNK2EA8UnitTest4Test17GetReportFunctionEv(ptr noundef nonnull align 8 dereferenceable(80) %this) unnamed_addr #1 align 2 {
entry:
  %this.addr = alloca ptr, align 8
  %pTest = alloca ptr, align 8
  %pReportFunction = alloca ptr, align 8
  store ptr %this, ptr %this.addr, align 8
  %this1 = load ptr, ptr %this.addr, align 8
  store ptr %this1, ptr %pTest, align 8
  %mpReportFunction = getelementptr inbounds %"class.EA::UnitTest::Test", ptr %this1, i32 0, i32 5
  %0 = load ptr, ptr %mpReportFunction, align 8
  store ptr %0, ptr %pReportFunction, align 8
  br label %while.cond

while.cond:                                       ; preds = %if.end, %entry
  %1 = load ptr, ptr %pReportFunction, align 8
  %tobool = icmp ne ptr %1, null
  %lnot = xor i1 %tobool, true
  br i1 %lnot, label %while.body, label %while.end

while.body:                                       ; preds = %while.cond
  %2 = load ptr, ptr %pTest, align 8
  %mpParentSuite = getelementptr inbounds %"class.EA::UnitTest::Test", ptr %2, i32 0, i32 2
  %3 = load ptr, ptr %mpParentSuite, align 8
  store ptr %3, ptr %pTest, align 8
  %4 = load ptr, ptr %pTest, align 8
  %tobool2 = icmp ne ptr %4, null
  br i1 %tobool2, label %if.then, label %if.else

if.then:                                          ; preds = %while.body
  %5 = load ptr, ptr %pTest, align 8
  %mpReportFunction3 = getelementptr inbounds %"class.EA::UnitTest::Test", ptr %5, i32 0, i32 5
  %6 = load ptr, ptr %mpReportFunction3, align 8
  store ptr %6, ptr %pReportFunction, align 8
  br label %if.end

if.else:                                          ; preds = %while.body
  br label %while.end

if.end:                                           ; preds = %if.then
  br label %while.cond, !llvm.loop !7

while.end:                                        ; preds = %if.else, %while.cond
  %7 = load ptr, ptr %pReportFunction, align 8
  %tobool4 = icmp ne ptr %7, null
  br i1 %tobool4, label %if.end6, label %if.then5

if.then5:                                         ; preds = %while.end
  %8 = load ptr, ptr @_ZN2EA8UnitTest16gpReportFunctionE, align 8
  store ptr %8, ptr %pReportFunction, align 8
  br label %if.end6

if.end6:                                          ; preds = %if.then5, %while.end
  %9 = load ptr, ptr %pReportFunction, align 8
  ret ptr %9
}