; Function Attrs: mustprogress nofree norecurse nosync nounwind willreturn memory(read, inaccessiblemem: none) uwtable
define dso_local noundef ptr @_ZNK2EA8UnitTest4Test17GetReportFunctionEv(ptr nocapture noundef nonnull readonly align 8 dereferenceable(80) %this) unnamed_addr #16 align 2 {
entry:
  br label %while.cond

while.cond:                                       ; preds = %while.body, %entry
  %pTest.0 = phi ptr [ %this, %entry ], [ %0, %while.body ]
  %pReportFunction.0.in = getelementptr inbounds i8, ptr %pTest.0, i64 56
  %pReportFunction.0 = load ptr, ptr %pReportFunction.0.in, align 8
  %tobool.not = icmp eq ptr %pReportFunction.0, null
  br i1 %tobool.not, label %while.body, label %while.end

while.body:                                       ; preds = %while.cond
  %mpParentSuite = getelementptr inbounds i8, ptr %pTest.0, i64 32
  %0 = load ptr, ptr %mpParentSuite, align 8
  %tobool2.not = icmp eq ptr %0, null
  br i1 %tobool2.not, label %while.end, label %while.cond, !llvm.loop !8

while.end:                                        ; preds = %while.body, %while.cond
  %1 = load ptr, ptr @_ZN2EA8UnitTest16gpReportFunctionE, align 8
  %spec.select = select i1 %tobool.not, ptr %1, ptr %pReportFunction.0
  ret ptr %spec.select
}